target datalayout = "e-m:e-p270:32:32-p271:32:32-p272:64:64-i64:64-i128:128-f80:128-n8:16:32:64-S128"
target triple = "x86_64-pc-linux-gnu"

@ff_aac_pow2sf_tab = global [428 x float] zeroinitializer, align 16
@ff_aac_pow34sf_tab = global [428 x float] zeroinitializer, align 16

; Function Attrs: cold nounwind optsize uwtable
define internal void @aac_tableinit() #0 {
  %1 = alloca float, align 4
  %2 = alloca float, align 4
  %3 = alloca i32, align 4
  %4 = alloca i32, align 4
  %5 = alloca i32, align 4
  %6 = alloca i32, align 4
  %7 = alloca i32, align 4
  call void @llvm.lifetime.start.p0(i64 4, ptr %1) #4
  store float 0x3CD0000000000000, ptr %1, align 4, !tbaa !4
  call void @llvm.lifetime.start.p0(i64 4, ptr %2) #4
  store float 0x3D90000000000000, ptr %2, align 4, !tbaa !4
  call void @llvm.lifetime.start.p0(i64 4, ptr %3) #4
  call void @llvm.lifetime.start.p0(i64 4, ptr %4) #4
  call void @llvm.lifetime.start.p0(i64 4, ptr %5) #4
  store i32 0, ptr %5, align 4, !tbaa !8
  call void @llvm.lifetime.start.p0(i64 4, ptr %6) #4
  store i32 8, ptr %6, align 4, !tbaa !8
  call void @llvm.lifetime.start.p0(i64 4, ptr %7) #4
  store i32 0, ptr %7, align 4, !tbaa !8
  br label %8

8:                                                ; preds = %54, %0
  %9 = load i32, ptr %7, align 4, !tbaa !8
  %10 = icmp slt i32 %9, 428
  br i1 %10, label %12, label %11

11:                                               ; preds = %8
  call void @llvm.lifetime.end.p0(i64 4, ptr %7) #4
  br label %57

12:                                               ; preds = %8
  %13 = load i32, ptr %7, align 4, !tbaa !8
  %14 = srem i32 %13, 4
  %15 = mul nsw i32 4, %14
  store i32 %15, ptr %3, align 4, !tbaa !8
  %16 = load i32, ptr %7, align 4, !tbaa !8
  %17 = mul nsw i32 3, %16
  %18 = add nsw i32 8, %17
  %19 = srem i32 %18, 16
  store i32 %19, ptr %4, align 4, !tbaa !8
  %20 = load i32, ptr %3, align 4, !tbaa !8
  %21 = load i32, ptr %5, align 4, !tbaa !8
  %22 = icmp slt i32 %20, %21
  br i1 %22, label %23, label %26

23:                                               ; preds = %12
  %24 = load float, ptr %1, align 4, !tbaa !4
  %25 = fmul nsz float %24, 2.000000e+00
  store float %25, ptr %1, align 4, !tbaa !4
  br label %26

26:                                               ; preds = %23, %12
  %27 = load i32, ptr %4, align 4, !tbaa !8
  %28 = load i32, ptr %6, align 4, !tbaa !8
  %29 = icmp slt i32 %27, %28
  br i1 %29, label %30, label %33

30:                                               ; preds = %26
  %31 = load float, ptr %2, align 4, !tbaa !4
  %32 = fmul nsz float %31, 2.000000e+00
  store float %32, ptr %2, align 4, !tbaa !4
  br label %33

33:                                               ; preds = %30, %26
  %34 = load float, ptr %1, align 4, !tbaa !4
  %35 = load i32, ptr %3, align 4, !tbaa !8
  %36 = sext i32 %35 to i64
  %37 = getelementptr inbounds [16 x float], ptr @aac_tableinit.exp2_lut, i64 0, i64 %36
  %38 = load float, ptr %37, align 4, !tbaa !4
  %39 = fmul nsz float %34, %38
  %40 = load i32, ptr %7, align 4, !tbaa !8
  %41 = sext i32 %40 to i64
  %42 = getelementptr inbounds [428 x float], ptr @ff_aac_pow2sf_tab, i64 0, i64 %41
  store float %39, ptr %42, align 4, !tbaa !4
  %43 = load float, ptr %2, align 4, !tbaa !4
  %44 = load i32, ptr %4, align 4, !tbaa !8
  %45 = sext i32 %44 to i64
  %46 = getelementptr inbounds [16 x float], ptr @aac_tableinit.exp2_lut, i64 0, i64 %45
  %47 = load float, ptr %46, align 4, !tbaa !4
  %48 = fmul nsz float %43, %47
  %49 = load i32, ptr %7, align 4, !tbaa !8
  %50 = sext i32 %49 to i64
  %51 = getelementptr inbounds [428 x float], ptr @ff_aac_pow34sf_tab, i64 0, i64 %50
  store float %48, ptr %51, align 4, !tbaa !4
  %52 = load i32, ptr %3, align 4, !tbaa !8
  store i32 %52, ptr %5, align 4, !tbaa !8
  %53 = load i32, ptr %4, align 4, !tbaa !8
  store i32 %53, ptr %6, align 4, !tbaa !8
  br label %54

54:                                               ; preds = %33
  %55 = load i32, ptr %7, align 4, !tbaa !8
  %56 = add nsw i32 %55, 1
  store i32 %56, ptr %7, align 4, !tbaa !8
  br label %8, !llvm.loop !10

57:                                               ; preds = %11
  call void @llvm.lifetime.end.p0(i64 4, ptr %6) #4
  call void @llvm.lifetime.end.p0(i64 4, ptr %5) #4
  call void @llvm.lifetime.end.p0(i64 4, ptr %4) #4
  call void @llvm.lifetime.end.p0(i64 4, ptr %3) #4
  call void @llvm.lifetime.end.p0(i64 4, ptr %2) #4
  call void @llvm.lifetime.end.p0(i64 4, ptr %1) #4
  ret void
}