; Function Attrs: cold nofree norecurse nosync nounwind optsize memory(write, argmem: none, inaccessiblemem: none) uwtable
define internal fastcc void @aac_tableinit() unnamed_addr #2 {
  br label %2

1:                                                ; preds = %2
  ret void

2:                                                ; preds = %0, %2
  %indvars.iv = phi i64 [ 0, %0 ], [ %indvars.iv.next, %2 ]
  %.01725 = phi i32 [ 8, %0 ], [ %8, %2 ]
  %.01824 = phi i32 [ 0, %0 ], [ %4, %2 ]
  %.01923 = phi float [ 0x3CD0000000000000, %0 ], [ %.1, %2 ]
  %.02022 = phi float [ 0x3D90000000000000, %0 ], [ %.121, %2 ]
  %indvars.iv.tr = trunc i64 %indvars.iv to i32
  %3 = shl i32 %indvars.iv.tr, 2
  %4 = and i32 %3, 12
  %5 = trunc i64 %indvars.iv to i32
  %6 = mul i32 %5, 3
  %7 = and i32 %6, 15
  %8 = xor i32 %7, 8
  %9 = icmp samesign ult i32 %4, %.01824
  %10 = fmul nsz float %.01923, 2.000000e+00
  %.1 = select nsz i1 %9, float %10, float %.01923
  %11 = icmp samesign ult i32 %8, %.01725
  %12 = fmul nsz float %.02022, 2.000000e+00
  %.121 = select nsz i1 %11, float %12, float %.02022
  %13 = zext nneg i32 %4 to i64
  %14 = getelementptr inbounds nuw [16 x float], ptr @aac_tableinit.exp2_lut, i64 0, i64 %13
  %15 = load float, ptr %14, align 16, !tbaa !4
  %16 = fmul nsz float %.1, %15
  %17 = getelementptr inbounds nuw [428 x float], ptr @ff_aac_pow2sf_tab, i64 0, i64 %indvars.iv
  store float %16, ptr %17, align 4, !tbaa !4
  %18 = zext nneg i32 %8 to i64
  %19 = getelementptr inbounds nuw [16 x float], ptr @aac_tableinit.exp2_lut, i64 0, i64 %18
  %20 = load float, ptr %19, align 4, !tbaa !4
  %21 = fmul nsz float %.121, %20
  %22 = getelementptr inbounds nuw [428 x float], ptr @ff_aac_pow34sf_tab, i64 0, i64 %indvars.iv
  store float %21, ptr %22, align 4, !tbaa !4
  %indvars.iv.next = add nuw nsw i64 %indvars.iv, 1
  %exitcond.not = icmp eq i64 %indvars.iv.next, 428
  br i1 %exitcond.not, label %1, label %2, !llvm.loop !8
}